target datalayout = "e-m:e-p270:32:32-p271:32:32-p272:64:64-i64:64-i128:128-f80:128-n8:16:32:64-S128"
target triple = "x86_64-pc-linux-gnu"

%struct.slurm_conf_t = type { i64, ptr, i16, ptr, ptr, ptr, ptr, ptr, i16, ptr, ptr, ptr, ptr, ptr, ptr, ptr, i16, ptr, ptr, ptr, ptr, i16, ptr, ptr, ptr, i64, ptr, ptr, ptr, ptr, i16, ptr, ptr, i16, i32, ptr, i32, ptr, i32, i32, ptr, ptr, i64, i64, ptr, i16, i16, ptr, i32, i32, ptr, i32, ptr, i32, i16, i16, i16, ptr, i16, i16, ptr, ptr, i32, i16, i16, ptr, i32, i16, ptr, ptr, ptr, ptr, i16, ptr, ptr, ptr, ptr, i32, ptr, ptr, ptr, ptr, i16, i16, ptr, i32, i32, i32, i16, i16, ptr, ptr, i16, ptr, ptr, i32, i32, i32, i32, i32, i64, i32, i32, i16, ptr, ptr, i32, ptr, ptr, ptr, i16, i32, ptr, ptr, i16, ptr, ptr, i32, i16, ptr, ptr, ptr, ptr, i32, i32, i16, i16, i32, ptr, i16, ptr, i32, i32, i32, i32, i32, i32, ptr, i16, ptr, ptr, i32, i16, ptr, i32, i16, i16, ptr, ptr, ptr, i16, ptr, ptr, ptr, ptr, i16, i16, ptr, i16, ptr, i16, ptr, i16, ptr, i16, ptr, ptr, ptr, ptr, i16, ptr, ptr, ptr, i32, ptr, i32, ptr, ptr, i16, ptr, ptr, i32, i16, ptr, ptr, i16, i16, ptr, i16, ptr, ptr, ptr, i32, ptr, i16, i16, ptr, ptr, ptr, ptr, ptr, ptr, ptr, ptr, i16, i32, i16, ptr, ptr, ptr, ptr, i32, ptr, ptr, ptr, i16, ptr, ptr, ptr, i16, ptr, i16, ptr, i16, i16, ptr }
%struct.slurm_topo_ops = type { ptr, ptr, ptr, ptr, ptr, ptr, ptr, ptr, ptr, ptr, ptr, ptr, ptr, ptr }

@slurm_conf = external global %struct.slurm_conf_t, align 8
@ops = internal global %struct.slurm_topo_ops zeroinitializer, align 8
@.str.5 = private unnamed_addr constant [43 x i8] c"ROUTE: split_hostlist: hl=%s tree_width %u\00", align 1
@.str.6 = private unnamed_addr constant [85 x i8] c"ROUTE: number of nodes in split lists (%d) is not equal to number in input list (%d)\00", align 1

; Function Attrs: nounwind uwtable
define dso_local i32 @topology_g_split_hostlist(ptr noundef %0, ptr noundef %1, ptr noundef %2, i16 noundef zeroext %3) #0 {
  %5 = alloca ptr, align 8
  %6 = alloca ptr, align 8
  %7 = alloca ptr, align 8
  %8 = alloca i16, align 2
  %9 = alloca i32, align 4
  %10 = alloca i32, align 4
  %11 = alloca i32, align 4
  %12 = alloca i32, align 4
  %13 = alloca ptr, align 8
  store ptr %0, ptr %5, align 8
  store ptr %1, ptr %6, align 8
  store ptr %2, ptr %7, align 8
  store i16 %3, ptr %8, align 2
  call void @llvm.lifetime.start.p0(i64 4, ptr %9) #7
  call void @llvm.lifetime.start.p0(i64 4, ptr %10) #7
  call void @llvm.lifetime.start.p0(i64 4, ptr %11) #7
  call void @llvm.lifetime.start.p0(i64 4, ptr %12) #7
  call void @llvm.lifetime.start.p0(i64 8, ptr %13) #7
  store i32 0, ptr %12, align 4
  store i32 0, ptr %11, align 4
  %14 = load i16, ptr %8, align 2
  %15 = icmp ne i16 %14, 0
  br i1 %15, label %18, label %16

16:                                               ; preds = %4
  %17 = load i16, ptr getelementptr inbounds nuw (%struct.slurm_conf_t, ptr @slurm_conf, i32 0, i32 219), align 8
  store i16 %17, ptr %8, align 2
  br label %18

18:                                               ; preds = %16, %4
  %19 = load i64, ptr getelementptr inbounds nuw (%struct.slurm_conf_t, ptr @slurm_conf, i32 0, i32 42), align 8
  %20 = and i64 %19, 536870912
  %21 = icmp ne i64 %20, 0
  br i1 %21, label %22, label %40

22:                                               ; preds = %18
  %23 = load ptr, ptr %5, align 8
  %24 = call i32 @hostlist_count(ptr noundef %23)
  store i32 %24, ptr %11, align 4
  %25 = load ptr, ptr %5, align 8
  %26 = call ptr @hostlist_ranged_string_xmalloc(ptr noundef %25)
  store ptr %26, ptr %13, align 8
  br label %27

27:                                               ; preds = %22
  br label %28

28:                                               ; preds = %27
  %29 = call i32 @get_log_level()
  %30 = icmp sge i32 %29, 3
  br i1 %30, label %31, label %35

31:                                               ; preds = %28
  %32 = load ptr, ptr %13, align 8
  %33 = load i16, ptr %8, align 2
  %34 = zext i16 %33 to i32
  call void (i32, ptr, ...) @log_var(i32 noundef 3, ptr noundef @.str.5, ptr noundef %32, i32 noundef %34)
  br label %35

35:                                               ; preds = %31, %28
  br label %36

36:                                               ; preds = %35
  br label %37

37:                                               ; preds = %36
  br label %38

38:                                               ; preds = %37
  br label %39

39:                                               ; preds = %38
  call void @slurm_xfree(ptr noundef %13)
  br label %40

40:                                               ; preds = %39, %18
  %41 = load ptr, ptr getelementptr inbounds nuw (%struct.slurm_topo_ops, ptr @ops, i32 0, i32 7), align 8
  %42 = load ptr, ptr %5, align 8
  %43 = load ptr, ptr %6, align 8
  %44 = load ptr, ptr %7, align 8
  %45 = load i16, ptr %8, align 2
  %46 = call i32 %41(ptr noundef %42, ptr noundef %43, ptr noundef %44, i16 noundef zeroext %45)
  store i32 %46, ptr %9, align 4
  %47 = load i32, ptr %9, align 4
  %48 = icmp ne i32 %47, 0
  br i1 %48, label %54, label %49

49:                                               ; preds = %40
  %50 = load ptr, ptr %7, align 8
  %51 = load i32, ptr %50, align 4
  %52 = icmp ne i32 %51, 0
  br i1 %52, label %54, label %53

53:                                               ; preds = %49
  br label %96

54:                                               ; preds = %49, %40
  %55 = load i64, ptr getelementptr inbounds nuw (%struct.slurm_conf_t, ptr @slurm_conf, i32 0, i32 42), align 8
  %56 = and i64 %55, 536870912
  %57 = icmp ne i64 %56, 0
  br i1 %57, label %58, label %95

58:                                               ; preds = %54
  store i32 0, ptr %12, align 4
  store i32 0, ptr %10, align 4
  br label %59

59:                                               ; preds = %74, %58
  %60 = load i32, ptr %10, align 4
  %61 = load ptr, ptr %7, align 8
  %62 = load i32, ptr %61, align 4
  %63 = icmp slt i32 %60, %62
  br i1 %63, label %64, label %77

64:                                               ; preds = %59
  %65 = load ptr, ptr %6, align 8
  %66 = load ptr, ptr %65, align 8
  %67 = load i32, ptr %10, align 4
  %68 = sext i32 %67 to i64
  %69 = getelementptr inbounds ptr, ptr %66, i64 %68
  %70 = load ptr, ptr %69, align 8
  %71 = call i32 @hostlist_count(ptr noundef %70)
  %72 = load i32, ptr %12, align 4
  %73 = add nsw i32 %72, %71
  store i32 %73, ptr %12, align 4
  br label %74

74:                                               ; preds = %64
  %75 = load i32, ptr %10, align 4
  %76 = add nsw i32 %75, 1
  store i32 %76, ptr %10, align 4
  br label %59, !llvm.loop !8

77:                                               ; preds = %59
  %78 = load i32, ptr %12, align 4
  %79 = load i32, ptr %11, align 4
  %80 = icmp ne i32 %78, %79
  br i1 %80, label %81, label %94

81:                                               ; preds = %77
  br label %82

82:                                               ; preds = %81
  br label %83

83:                                               ; preds = %82
  %84 = call i32 @get_log_level()
  %85 = icmp sge i32 %84, 3
  br i1 %85, label %86, label %89

86:                                               ; preds = %83
  %87 = load i32, ptr %12, align 4
  %88 = load i32, ptr %11, align 4
  call void (i32, ptr, ...) @log_var(i32 noundef 3, ptr noundef @.str.6, i32 noundef %87, i32 noundef %88)
  br label %89

89:                                               ; preds = %86, %83
  br label %90

90:                                               ; preds = %89
  br label %91

91:                                               ; preds = %90
  br label %92

92:                                               ; preds = %91
  br label %93

93:                                               ; preds = %92
  br label %94

94:                                               ; preds = %93, %77
  br label %95

95:                                               ; preds = %94, %54
  br label %96

96:                                               ; preds = %95, %53
  %97 = load i32, ptr %9, align 4
  call void @llvm.lifetime.end.p0(i64 8, ptr %13) #7
  call void @llvm.lifetime.end.p0(i64 4, ptr %12) #7
  call void @llvm.lifetime.end.p0(i64 4, ptr %11) #7
  call void @llvm.lifetime.end.p0(i64 4, ptr %10) #7
  call void @llvm.lifetime.end.p0(i64 4, ptr %9) #7
  ret i32 %97
}