; Function Attrs: nounwind uwtable
define dso_local i32 @topology_g_split_hostlist(ptr noundef %0, ptr noundef %1, ptr noundef %2, i16 noundef zeroext %3) local_unnamed_addr #0 {
  %5 = alloca ptr, align 8
  call void @llvm.lifetime.start.p0(i64 8, ptr nonnull %5) #9
  %.not = icmp eq i16 %3, 0
  %6 = load i16, ptr getelementptr inbounds nuw (i8, ptr @slurm_conf, i64 1488), align 8
  %spec.select = select i1 %.not, i16 %6, i16 %3
  %7 = load i64, ptr getelementptr inbounds nuw (i8, ptr @slurm_conf, i64 320), align 8
  %8 = and i64 %7, 536870912
  %.not24 = icmp eq i64 %8, 0
  br i1 %.not24, label %17, label %9

9:                                                ; preds = %4
  %10 = tail call i32 @hostlist_count(ptr noundef %0) #9
  %11 = tail call ptr @hostlist_ranged_string_xmalloc(ptr noundef %0) #9
  store ptr %11, ptr %5, align 8
  %12 = tail call i32 @get_log_level() #9
  %13 = icmp sgt i32 %12, 2
  br i1 %13, label %14, label %16

14:                                               ; preds = %9
  %15 = zext i16 %spec.select to i32
  tail call void (i32, ptr, ...) @log_var(i32 noundef 3, ptr noundef nonnull @.str.5, ptr noundef %11, i32 noundef %15) #9
  br label %16

16:                                               ; preds = %14, %9
  call void @slurm_xfree(ptr noundef nonnull %5) #9
  br label %17

17:                                               ; preds = %16, %4
  %.020 = phi i32 [ %10, %16 ], [ 0, %4 ]
  %18 = load ptr, ptr getelementptr inbounds nuw (i8, ptr @ops, i64 56), align 8
  %19 = call i32 %18(ptr noundef %0, ptr noundef %1, ptr noundef %2, i16 noundef zeroext %spec.select) #9
  %.not25 = icmp eq i32 %19, 0
  br i1 %.not25, label %20, label %22

20:                                               ; preds = %17
  %21 = load i32, ptr %2, align 4
  %.not26 = icmp eq i32 %21, 0
  br i1 %.not26, label %39, label %22

22:                                               ; preds = %20, %17
  %23 = load i64, ptr getelementptr inbounds nuw (i8, ptr @slurm_conf, i64 320), align 8
  %24 = and i64 %23, 536870912
  %.not27 = icmp eq i64 %24, 0
  br i1 %.not27, label %39, label %.preheader

.preheader:                                       ; preds = %22
  %25 = load i32, ptr %2, align 4
  %26 = icmp sgt i32 %25, 0
  br i1 %26, label %.lr.ph, label %._crit_edge

.lr.ph:                                           ; preds = %.preheader, %.lr.ph
  %indvars.iv = phi i64 [ %indvars.iv.next, %.lr.ph ], [ 0, %.preheader ]
  %.030 = phi i32 [ %31, %.lr.ph ], [ 0, %.preheader ]
  %27 = load ptr, ptr %1, align 8
  %28 = getelementptr inbounds nuw ptr, ptr %27, i64 %indvars.iv
  %29 = load ptr, ptr %28, align 8
  %30 = call i32 @hostlist_count(ptr noundef %29) #9
  %31 = add nsw i32 %30, %.030
  %indvars.iv.next = add nuw nsw i64 %indvars.iv, 1
  %32 = load i32, ptr %2, align 4
  %33 = sext i32 %32 to i64
  %34 = icmp slt i64 %indvars.iv.next, %33
  br i1 %34, label %.lr.ph, label %._crit_edge, !llvm.loop !8

._crit_edge:                                      ; preds = %.lr.ph, %.preheader
  %.0.lcssa = phi i32 [ 0, %.preheader ], [ %31, %.lr.ph ]
  %.not28 = icmp eq i32 %.0.lcssa, %.020
  br i1 %.not28, label %39, label %35

35:                                               ; preds = %._crit_edge
  %36 = call i32 @get_log_level() #9
  %37 = icmp sgt i32 %36, 2
  br i1 %37, label %38, label %39

38:                                               ; preds = %35
  call void (i32, ptr, ...) @log_var(i32 noundef 3, ptr noundef nonnull @.str.6, i32 noundef %.0.lcssa, i32 noundef %.020) #9
  br label %39

39:                                               ; preds = %22, %35, %38, %._crit_edge, %20
  call void @llvm.lifetime.end.p0(i64 8, ptr nonnull %5) #9
  ret i32 %19
}